target datalayout = "e-m:e-p270:32:32-p271:32:32-p272:64:64-i64:64-i128:128-f80:128-n8:16:32:64-S128"
target triple = "x86_64-pc-linux-gnu"

%"class.tinyxml2::StrPair" = type { i32, ptr, ptr }
%"class.tinyxml2::XMLAttribute" = type { ptr, %"class.tinyxml2::StrPair", %"class.tinyxml2::StrPair", i32, ptr, ptr }

@.str.7 = private unnamed_addr constant [5 x i8] c"%lld\00", align 1
@.str.16 = private unnamed_addr constant [5 x i8] c"%llx\00", align 1

; Function Attrs: inlinehint mustprogress nounwind uwtable
define linkonce_odr hidden noundef zeroext i1 @_ZN8tinyxml27XMLUtil18IsUTF8ContinuationEc(i8 noundef signext %0) #8 comdat align 2 {
  %2 = alloca i8, align 1
  store i8 %0, ptr %2, align 1, !tbaa !20
  %3 = load i8, ptr %2, align 1, !tbaa !20
  %4 = sext i8 %3 to i32
  %5 = and i32 %4, 128
  %6 = icmp ne i32 %5, 0
  ret i1 %6
}

; Function Attrs: mustprogress uwtable
define linkonce_odr hidden noundef zeroext i1 @_ZN8tinyxml27XMLUtil12IsWhiteSpaceEc(i8 noundef signext %0) #2 comdat align 2 {
  %2 = alloca i8, align 1
  store i8 %0, ptr %2, align 1, !tbaa !20
  %3 = load i8, ptr %2, align 1, !tbaa !20
  %4 = call noundef zeroext i1 @_ZN8tinyxml27XMLUtil18IsUTF8ContinuationEc(i8 noundef signext %3)
  br i1 %4, label %10, label %5

5:                                                ; preds = %1
  %6 = load i8, ptr %2, align 1, !tbaa !20
  %7 = zext i8 %6 to i32
  %8 = call i32 @isspace(i32 noundef %7) #19
  %9 = icmp ne i32 %8, 0
  br label %10

10:                                               ; preds = %5, %1
  %11 = phi i1 [ false, %1 ], [ %9, %5 ]
  ret i1 %11
}

; Function Attrs: mustprogress uwtable
define linkonce_odr hidden noundef ptr @_ZN8tinyxml27XMLUtil14SkipWhiteSpaceEPKcPi(ptr noundef %0, ptr noundef %1) #2 comdat align 2 {
  %3 = alloca ptr, align 8
  %4 = alloca ptr, align 8
  store ptr %0, ptr %3, align 8, !tbaa !14
  store ptr %1, ptr %4, align 8, !tbaa !18
  br label %5

5:                                                ; preds = %21, %2
  %6 = load ptr, ptr %3, align 8, !tbaa !14
  %7 = load i8, ptr %6, align 1, !tbaa !20
  %8 = call noundef zeroext i1 @_ZN8tinyxml27XMLUtil12IsWhiteSpaceEc(i8 noundef signext %7)
  br i1 %8, label %9, label %24

9:                                                ; preds = %5
  %10 = load ptr, ptr %4, align 8, !tbaa !18
  %11 = icmp ne ptr %10, null
  br i1 %11, label %12, label %21

12:                                               ; preds = %9
  %13 = load ptr, ptr %3, align 8, !tbaa !14
  %14 = load i8, ptr %13, align 1, !tbaa !20
  %15 = sext i8 %14 to i32
  %16 = icmp eq i32 %15, 10
  br i1 %16, label %17, label %21

17:                                               ; preds = %12
  %18 = load ptr, ptr %4, align 8, !tbaa !18
  %19 = load i32, ptr %18, align 4, !tbaa !15
  %20 = add nsw i32 %19, 1
  store i32 %20, ptr %18, align 4, !tbaa !15
  br label %21

21:                                               ; preds = %17, %12, %9
  %22 = load ptr, ptr %3, align 8, !tbaa !14
  %23 = getelementptr inbounds nuw i8, ptr %22, i32 1
  store ptr %23, ptr %3, align 8, !tbaa !14
  br label %5, !llvm.loop !25

24:                                               ; preds = %5
  %25 = load ptr, ptr %3, align 8, !tbaa !14
  ret ptr %25
}

; Function Attrs: inlinehint mustprogress uwtable
define linkonce_odr hidden noundef zeroext i1 @_ZN8tinyxml27XMLUtil11IsPrefixHexEPKc(ptr noundef %0) #11 comdat align 2 {
  %2 = alloca ptr, align 8
  store ptr %0, ptr %2, align 8, !tbaa !14
  %3 = load ptr, ptr %2, align 8, !tbaa !14
  %4 = call noundef ptr @_ZN8tinyxml27XMLUtil14SkipWhiteSpaceEPKcPi(ptr noundef %3, ptr noundef null)
  store ptr %4, ptr %2, align 8, !tbaa !14
  %5 = load ptr, ptr %2, align 8, !tbaa !14
  %6 = icmp ne ptr %5, null
  br i1 %6, label %7, label %26

7:                                                ; preds = %1
  %8 = load ptr, ptr %2, align 8, !tbaa !14
  %9 = load i8, ptr %8, align 1, !tbaa !20
  %10 = sext i8 %9 to i32
  %11 = icmp eq i32 %10, 48
  br i1 %11, label %12, label %26

12:                                               ; preds = %7
  %13 = load ptr, ptr %2, align 8, !tbaa !14
  %14 = getelementptr inbounds i8, ptr %13, i64 1
  %15 = load i8, ptr %14, align 1, !tbaa !20
  %16 = sext i8 %15 to i32
  %17 = icmp eq i32 %16, 120
  br i1 %17, label %24, label %18

18:                                               ; preds = %12
  %19 = load ptr, ptr %2, align 8, !tbaa !14
  %20 = getelementptr inbounds i8, ptr %19, i64 1
  %21 = load i8, ptr %20, align 1, !tbaa !20
  %22 = sext i8 %21 to i32
  %23 = icmp eq i32 %22, 88
  br label %24

24:                                               ; preds = %18, %12
  %25 = phi i1 [ true, %12 ], [ %23, %18 ]
  br label %26

26:                                               ; preds = %24, %7, %1
  %27 = phi i1 [ false, %7 ], [ false, %1 ], [ %25, %24 ]
  ret i1 %27
}

; Function Attrs: mustprogress uwtable
define noundef zeroext i1 @_ZN8tinyxml27XMLUtil7ToInt64EPKcPl(ptr noundef %0, ptr noundef %1) #2 align 2 {
  %3 = alloca i1, align 1
  %4 = alloca ptr, align 8
  %5 = alloca ptr, align 8
  %6 = alloca i64, align 8
  %7 = alloca i32, align 4
  %8 = alloca i64, align 8
  store ptr %0, ptr %4, align 8, !tbaa !14
  store ptr %1, ptr %5, align 8, !tbaa !52
  %9 = load ptr, ptr %4, align 8, !tbaa !14
  %10 = call noundef zeroext i1 @_ZN8tinyxml27XMLUtil11IsPrefixHexEPKc(ptr noundef %9)
  br i1 %10, label %11, label %22

11:                                               ; preds = %2
  call void @llvm.lifetime.start.p0(i64 8, ptr %6) #18
  store i64 0, ptr %6, align 8, !tbaa !54
  %12 = load ptr, ptr %4, align 8, !tbaa !14
  %13 = call i32 (ptr, ptr, ...) @__isoc99_sscanf(ptr noundef %12, ptr noundef @.str.16, ptr noundef %6) #18
  %14 = icmp eq i32 %13, 1
  br i1 %14, label %15, label %18

15:                                               ; preds = %11
  %16 = load i64, ptr %6, align 8, !tbaa !54
  %17 = load ptr, ptr %5, align 8, !tbaa !52
  store i64 %16, ptr %17, align 8, !tbaa !16
  store i1 true, ptr %3, align 1
  store i32 1, ptr %7, align 4
  br label %19

18:                                               ; preds = %11
  store i32 0, ptr %7, align 4
  br label %19

19:                                               ; preds = %18, %15
  call void @llvm.lifetime.end.p0(i64 8, ptr %6) #18
  %20 = load i32, ptr %7, align 4
  switch i32 %20, label %36 [
    i32 0, label %21
    i32 1, label %34
  ]

21:                                               ; preds = %19
  br label %33

22:                                               ; preds = %2
  call void @llvm.lifetime.start.p0(i64 8, ptr %8) #18
  store i64 0, ptr %8, align 8, !tbaa !54
  %23 = load ptr, ptr %4, align 8, !tbaa !14
  %24 = call i32 (ptr, ptr, ...) @__isoc99_sscanf(ptr noundef %23, ptr noundef @.str.7, ptr noundef %8) #18
  %25 = icmp eq i32 %24, 1
  br i1 %25, label %26, label %29

26:                                               ; preds = %22
  %27 = load i64, ptr %8, align 8, !tbaa !54
  %28 = load ptr, ptr %5, align 8, !tbaa !52
  store i64 %27, ptr %28, align 8, !tbaa !16
  store i1 true, ptr %3, align 1
  store i32 1, ptr %7, align 4
  br label %30

29:                                               ; preds = %22
  store i32 0, ptr %7, align 4
  br label %30

30:                                               ; preds = %29, %26
  call void @llvm.lifetime.end.p0(i64 8, ptr %8) #18
  %31 = load i32, ptr %7, align 4
  switch i32 %31, label %36 [
    i32 0, label %32
    i32 1, label %34
  ]

32:                                               ; preds = %30
  br label %33

33:                                               ; preds = %32, %21
  store i1 false, ptr %3, align 1
  br label %34

34:                                               ; preds = %33, %30, %19
  %35 = load i1, ptr %3, align 1
  ret i1 %35

36:                                               ; preds = %30, %19
  unreachable
}

; Function Attrs: mustprogress uwtable
define noundef ptr @_ZNK8tinyxml212XMLAttribute5ValueEv(ptr noundef nonnull align 8 dereferenceable(80) %0) #2 align 2 {
  %2 = alloca ptr, align 8
  store ptr %0, ptr %2, align 8, !tbaa !140
  %3 = load ptr, ptr %2, align 8
  %4 = getelementptr inbounds nuw %"class.tinyxml2::XMLAttribute", ptr %3, i32 0, i32 2
  %5 = call noundef ptr @_ZN8tinyxml27StrPair6GetStrEv(ptr noundef nonnull align 8 dereferenceable(24) %4)
  ret ptr %5
}

; Function Attrs: mustprogress uwtable
define noundef i32 @_ZNK8tinyxml212XMLAttribute15QueryInt64ValueEPl(ptr noundef nonnull align 8 dereferenceable(80) %0, ptr noundef %1) #2 align 2 {
  %3 = alloca i32, align 4
  %4 = alloca ptr, align 8
  %5 = alloca ptr, align 8
  store ptr %0, ptr %4, align 8, !tbaa !140
  store ptr %1, ptr %5, align 8, !tbaa !52
  %6 = load ptr, ptr %4, align 8
  %7 = call noundef ptr @_ZNK8tinyxml212XMLAttribute5ValueEv(ptr noundef nonnull align 8 dereferenceable(80) %6)
  %8 = load ptr, ptr %5, align 8, !tbaa !52
  %9 = call noundef zeroext i1 @_ZN8tinyxml27XMLUtil7ToInt64EPKcPl(ptr noundef %7, ptr noundef %8)
  br i1 %9, label %10, label %11

10:                                               ; preds = %2
  store i32 0, ptr %3, align 4
  br label %12

11:                                               ; preds = %2
  store i32 2, ptr %3, align 4
  br label %12

12:                                               ; preds = %11, %10
  %13 = load i32, ptr %3, align 4
  ret i32 %13
}