; Function Attrs: mustprogress nofree nounwind uwtable
define noundef range(i32 0, 3) i32 @_ZNK8tinyxml212XMLAttribute15QueryInt64ValueEPl(ptr noundef nonnull align 8 captures(none) dereferenceable(80) %0, ptr noundef writeonly captures(none) %1) local_unnamed_addr #14 align 2 {
  %3 = alloca i64, align 8
  %4 = alloca i64, align 8
  %5 = getelementptr inbounds nuw i8, ptr %0, i64 32
  %6 = tail call noundef ptr @_ZN8tinyxml27StrPair6GetStrEv(ptr noundef nonnull align 8 dereferenceable(24) %5)
  %7 = load i8, ptr %6, align 1, !tbaa !12
  %8 = icmp slt i8 %7, 0
  br i1 %8, label %_ZN8tinyxml27XMLUtil11IsPrefixHexEPKc.exit.thread.i, label %_ZN8tinyxml27XMLUtil12IsWhiteSpaceEc.exit.us.i.i.i

_ZN8tinyxml27XMLUtil12IsWhiteSpaceEc.exit.us.i.i.i: ; preds = %2, %11
  %.pr.i.i = phi i8 [ %13, %11 ], [ %7, %2 ]
  %.08.us.i.i.i = phi ptr [ %12, %11 ], [ %6, %2 ]
  %9 = zext nneg i8 %.pr.i.i to i32
  %10 = tail call i32 @isspace(i32 noundef %9) #33
  %.not7.us.i.i.i = icmp eq i32 %10, 0
  br i1 %.not7.us.i.i.i, label %_ZN8tinyxml27XMLUtil14SkipWhiteSpaceEPKcPi.exit.i.i, label %11

11:                                               ; preds = %_ZN8tinyxml27XMLUtil12IsWhiteSpaceEc.exit.us.i.i.i
  %12 = getelementptr inbounds nuw i8, ptr %.08.us.i.i.i, i64 1
  %13 = load i8, ptr %12, align 1, !tbaa !12
  %14 = icmp slt i8 %13, 0
  br i1 %14, label %_ZN8tinyxml27XMLUtil11IsPrefixHexEPKc.exit.thread.i, label %_ZN8tinyxml27XMLUtil12IsWhiteSpaceEc.exit.us.i.i.i, !llvm.loop !17

_ZN8tinyxml27XMLUtil14SkipWhiteSpaceEPKcPi.exit.i.i: ; preds = %_ZN8tinyxml27XMLUtil12IsWhiteSpaceEc.exit.us.i.i.i
  %15 = icmp eq i8 %.pr.i.i, 48
  br i1 %15, label %_ZN8tinyxml27XMLUtil11IsPrefixHexEPKc.exit.i, label %_ZN8tinyxml27XMLUtil11IsPrefixHexEPKc.exit.thread.i

_ZN8tinyxml27XMLUtil11IsPrefixHexEPKc.exit.i:     ; preds = %_ZN8tinyxml27XMLUtil14SkipWhiteSpaceEPKcPi.exit.i.i
  %16 = getelementptr inbounds nuw i8, ptr %.08.us.i.i.i, i64 1
  %17 = load i8, ptr %16, align 1, !tbaa !12
  %18 = and i8 %17, -33
  %spec.select.i.i = icmp eq i8 %18, 88
  br i1 %spec.select.i.i, label %19, label %_ZN8tinyxml27XMLUtil11IsPrefixHexEPKc.exit.thread.i

19:                                               ; preds = %_ZN8tinyxml27XMLUtil11IsPrefixHexEPKc.exit.i
  call void @llvm.lifetime.start.p0(i64 8, ptr nonnull %3) #31
  store i64 0, ptr %3, align 8, !tbaa !34
  %20 = call i32 (ptr, ptr, ...) @__isoc99_sscanf(ptr noundef nonnull readonly %6, ptr noundef nonnull @.str.16, ptr noundef nonnull %3) #31
  %21 = icmp eq i32 %20, 1
  br i1 %21, label %22, label %.thread.i

.thread.i:                                        ; preds = %19
  call void @llvm.lifetime.end.p0(i64 8, ptr nonnull %3) #31
  br label %_ZN8tinyxml27XMLUtil7ToInt64EPKcPl.exit

22:                                               ; preds = %19
  %23 = load i64, ptr %3, align 8, !tbaa !34
  store i64 %23, ptr %1, align 8, !tbaa !27
  call void @llvm.lifetime.end.p0(i64 8, ptr nonnull %3) #31
  br label %_ZN8tinyxml27XMLUtil7ToInt64EPKcPl.exit

_ZN8tinyxml27XMLUtil11IsPrefixHexEPKc.exit.thread.i: ; preds = %11, %_ZN8tinyxml27XMLUtil11IsPrefixHexEPKc.exit.i, %_ZN8tinyxml27XMLUtil14SkipWhiteSpaceEPKcPi.exit.i.i, %2
  call void @llvm.lifetime.start.p0(i64 8, ptr nonnull %4) #31
  store i64 0, ptr %4, align 8, !tbaa !34
  %24 = call i32 (ptr, ptr, ...) @__isoc99_sscanf(ptr noundef nonnull readonly %6, ptr noundef nonnull @.str.7, ptr noundef nonnull %4) #31
  %25 = icmp eq i32 %24, 1
  br i1 %25, label %26, label %.thread12.i

.thread12.i:                                      ; preds = %_ZN8tinyxml27XMLUtil11IsPrefixHexEPKc.exit.thread.i
  call void @llvm.lifetime.end.p0(i64 8, ptr nonnull %4) #31
  br label %_ZN8tinyxml27XMLUtil7ToInt64EPKcPl.exit

26:                                               ; preds = %_ZN8tinyxml27XMLUtil11IsPrefixHexEPKc.exit.thread.i
  %27 = load i64, ptr %4, align 8, !tbaa !34
  store i64 %27, ptr %1, align 8, !tbaa !27
  call void @llvm.lifetime.end.p0(i64 8, ptr nonnull %4) #31
  br label %_ZN8tinyxml27XMLUtil7ToInt64EPKcPl.exit

_ZN8tinyxml27XMLUtil7ToInt64EPKcPl.exit:          ; preds = %26, %22, %.thread12.i, %.thread.i
  %28 = phi i32 [ 2, %.thread.i ], [ 2, %.thread12.i ], [ 0, %22 ], [ 0, %26 ]
  ret i32 %28
}